target datalayout = "e-m:e-p270:32:32-p271:32:32-p272:64:64-i64:64-i128:128-f80:128-n8:16:32:64-S128"
target triple = "x86_64-unknown-linux-gnu"

%"class.node::quic::CID" = type { %"class.node::MemoryRetainer", %struct.ngtcp2_cid, ptr }
%"class.node::MemoryRetainer" = type { ptr }
%struct.ngtcp2_cid = type { i64, [20 x i8] }
%"struct.std::hash" = type { i8 }

; Function Attrs: mustprogress nounwind uwtable
define linkonce_odr dso_local noundef i64 @_ZNKSt4hashIhEclEh(ptr noundef nonnull align 1 dereferenceable(1) %this, i8 noundef zeroext %__val) #4 comdat align 2 {
entry:
  %this.addr = alloca ptr, align 8
  %__val.addr = alloca i8, align 1
  store ptr %this, ptr %this.addr, align 8
  store i8 %__val, ptr %__val.addr, align 1
  %0 = load i8, ptr %__val.addr, align 1
  %conv = zext i8 %0 to i64
  ret i64 %conv
}

; Function Attrs: mustprogress nounwind uwtable
define dso_local noundef i64 @_ZNK4node4quic3CID6lengthEv(ptr noundef nonnull align 8 dereferenceable(48) %this) #4 align 2 {
entry:
  %this.addr = alloca ptr, align 8
  store ptr %this, ptr %this.addr, align 8
  %this1 = load ptr, ptr %this.addr, align 8
  %ptr_ = getelementptr inbounds %"class.node::quic::CID", ptr %this1, i32 0, i32 2
  %0 = load ptr, ptr %ptr_, align 8
  %datalen = getelementptr inbounds %struct.ngtcp2_cid, ptr %0, i32 0, i32 0
  %1 = load i64, ptr %datalen, align 8
  ret i64 %1
}

; Function Attrs: mustprogress nounwind uwtable
define dso_local noundef i64 @_ZNK4node4quic3CID4HashclERKS1_(ptr noundef nonnull align 1 dereferenceable(1) %this, ptr noundef nonnull align 8 dereferenceable(48) %cid) #4 align 2 {
entry:
  %this.addr = alloca ptr, align 8
  %cid.addr = alloca ptr, align 8
  %hash = alloca i64, align 8
  %n = alloca i64, align 8
  %ref.tmp = alloca %"struct.std::hash", align 1
  store ptr %this, ptr %this.addr, align 8
  store ptr %cid, ptr %cid.addr, align 8
  store i64 0, ptr %hash, align 8
  store i64 0, ptr %n, align 8
  br label %for.cond

for.cond:                                         ; preds = %for.inc, %entry
  %0 = load i64, ptr %n, align 8
  %1 = load ptr, ptr %cid.addr, align 8
  %call = call noundef i64 @_ZNK4node4quic3CID6lengthEv(ptr noundef nonnull align 8 dereferenceable(48) %1)
  %cmp = icmp ult i64 %0, %call
  br i1 %cmp, label %for.body, label %for.end

for.body:                                         ; preds = %for.cond
  %2 = load ptr, ptr %cid.addr, align 8
  %ptr_ = getelementptr inbounds %"class.node::quic::CID", ptr %2, i32 0, i32 2
  %3 = load ptr, ptr %ptr_, align 8
  %data = getelementptr inbounds %struct.ngtcp2_cid, ptr %3, i32 0, i32 1
  %4 = load i64, ptr %n, align 8
  %arrayidx = getelementptr inbounds [20 x i8], ptr %data, i64 0, i64 %4
  %5 = load i8, ptr %arrayidx, align 1
  %conv = zext i8 %5 to i32
  %add = add i32 %conv, -1640531527
  %conv2 = zext i32 %add to i64
  %6 = load i64, ptr %hash, align 8
  %shl = shl i64 %6, 6
  %add3 = add i64 %conv2, %shl
  %7 = load i64, ptr %hash, align 8
  %shr = lshr i64 %7, 2
  %add4 = add i64 %add3, %shr
  %conv5 = trunc i64 %add4 to i8
  %call6 = call noundef i64 @_ZNKSt4hashIhEclEh(ptr noundef nonnull align 1 dereferenceable(1) %ref.tmp, i8 noundef zeroext %conv5) #3
  %8 = load i64, ptr %hash, align 8
  %xor = xor i64 %8, %call6
  store i64 %xor, ptr %hash, align 8
  br label %for.inc

for.inc:                                          ; preds = %for.body
  %9 = load i64, ptr %n, align 8
  %inc = add i64 %9, 1
  store i64 %inc, ptr %n, align 8
  br label %for.cond, !llvm.loop !5

for.end:                                          ; preds = %for.cond
  %10 = load i64, ptr %hash, align 8
  ret i64 %10
}