; Function Attrs: mustprogress nofree norecurse nosync nounwind willreturn memory(read, inaccessiblemem: none) uwtable
define dso_local noundef i64 @_ZNK4node4quic3CID4HashclERKS1_(ptr nocapture noundef nonnull readnone align 1 dereferenceable(1) %this, ptr nocapture noundef nonnull readonly align 8 dereferenceable(48) %cid) local_unnamed_addr #7 align 2 {
entry:
  %ptr_.i = getelementptr inbounds i8, ptr %cid, i64 40
  %0 = load ptr, ptr %ptr_.i, align 8
  %1 = load i64, ptr %0, align 8
  %cmp7.not = icmp eq i64 %1, 0
  br i1 %cmp7.not, label %for.end, label %for.body.lr.ph

for.body.lr.ph:                                   ; preds = %entry
  %data = getelementptr inbounds i8, ptr %0, i64 8
  br label %for.body

for.body:                                         ; preds = %for.body.lr.ph, %for.body
  %n.09 = phi i64 [ 0, %for.body.lr.ph ], [ %inc, %for.body ]
  %hash.08 = phi i64 [ 0, %for.body.lr.ph ], [ %xor, %for.body ]
  %arrayidx = getelementptr inbounds [20 x i8], ptr %data, i64 0, i64 %n.09
  %2 = load i8, ptr %arrayidx, align 1
  %shl = shl nuw nsw i64 %hash.08, 6
  %shr = lshr i64 %hash.08, 2
  %add = add nuw nsw i64 %shl, 185
  %add3 = add nuw nsw i64 %add, %shr
  %add3.tr = trunc i64 %add3 to i8
  %add4.narrow = add i8 %2, %add3.tr
  %conv.i = zext i8 %add4.narrow to i64
  %xor = xor i64 %hash.08, %conv.i
  %inc = add nuw i64 %n.09, 1
  %exitcond.not = icmp eq i64 %inc, %1
  br i1 %exitcond.not, label %for.end, label %for.body, !llvm.loop !5

for.end:                                          ; preds = %for.body, %entry
  %hash.0.lcssa = phi i64 [ 0, %entry ], [ %xor, %for.body ]
  ret i64 %hash.0.lcssa
}